target datalayout = "e-m:e-p270:32:32-p271:32:32-p272:64:64-i64:64-i128:128-f80:128-n8:16:32:64-S128"
target triple = "x86_64-pc-linux-gnu"

%struct.t_psdata = type { ptr, %"class.std::vector", float, i32 }
%"class.std::vector" = type { %"struct.std::_Vector_base" }
%"struct.std::_Vector_base" = type { %"struct.std::_Vector_base<t_rgb, std::allocator<t_rgb>>::_Vector_impl" }
%"struct.std::_Vector_base<t_rgb, std::allocator<t_rgb>>::_Vector_impl" = type { %"struct.std::_Vector_base<t_rgb, std::allocator<t_rgb>>::_Vector_impl_data" }
%"struct.std::_Vector_base<t_rgb, std::allocator<t_rgb>>::_Vector_impl_data" = type { ptr, ptr, ptr }

@.str.33 = private unnamed_addr constant [76 x i8] c"/b {currentpoint %g %g r %g %g r %g %g r %g %g r f %g add moveto} bind def\0A\00", align 1

; Function Attrs: mustprogress nounwind uwtable
define void @_Z15ps_init_rgb_boxP8t_psdataff(ptr noundef %0, float noundef %1, float noundef %2) #3 {
  %4 = alloca ptr, align 8
  %5 = alloca float, align 4
  %6 = alloca float, align 4
  store ptr %0, ptr %4, align 8, !tbaa !26
  store float %1, ptr %5, align 4, !tbaa !15
  store float %2, ptr %6, align 4, !tbaa !15
  %7 = load ptr, ptr %4, align 8, !tbaa !26
  %8 = getelementptr inbounds nuw %struct.t_psdata, ptr %7, i32 0, i32 0
  %9 = load ptr, ptr %8, align 8, !tbaa !17
  %10 = load float, ptr %6, align 4, !tbaa !15
  %11 = fpext float %10 to double
  %12 = load float, ptr %5, align 4, !tbaa !15
  %13 = fpext float %12 to double
  %14 = load float, ptr %6, align 4, !tbaa !15
  %15 = fneg float %14
  %16 = fpext float %15 to double
  %17 = load float, ptr %5, align 4, !tbaa !15
  %18 = fneg float %17
  %19 = fpext float %18 to double
  %20 = load float, ptr %6, align 4, !tbaa !15
  %21 = fpext float %20 to double
  %22 = call i32 (ptr, ptr, ...) @fprintf(ptr noundef %9, ptr noundef @.str.33, double noundef 0.000000e+00, double noundef %11, double noundef %13, double noundef 0.000000e+00, double noundef 0.000000e+00, double noundef %16, double noundef %19, double noundef 0.000000e+00, double noundef %21) #14
  ret void
}