; Function Attrs: mustprogress nofree nounwind uwtable
define void @_Z15ps_init_rgb_boxP8t_psdataff(ptr noundef readonly captures(none) %0, float noundef %1, float noundef %2) local_unnamed_addr #8 {
  %4 = load ptr, ptr %0, align 8, !tbaa !9
  %5 = fpext float %2 to double
  %6 = fpext float %1 to double
  %7 = fneg float %2
  %8 = fpext float %7 to double
  %9 = fneg float %1
  %10 = fpext float %9 to double
  %11 = tail call i32 (ptr, ptr, ...) @fprintf(ptr noundef %4, ptr noundef nonnull @.str.33, double noundef 0.000000e+00, double noundef %5, double noundef %6, double noundef 0.000000e+00, double noundef 0.000000e+00, double noundef %8, double noundef %10, double noundef 0.000000e+00, double noundef %5) #18
  ret void
}